target datalayout = "e-m:e-p270:32:32-p271:32:32-p272:64:64-i64:64-i128:128-f80:128-n8:16:32:64-S128"
target triple = "x86_64-unknown-linux-gnu"

%class.hilbert_basis = type <{ ptr, %class.vector, %class.svector, %class.vector.1, %class.svector.2, %class.svector.2, %class.svector.2, %class.svector.2, %class.svector.2, ptr, ptr, %"struct.hilbert_basis::stats", [4 x i8], ptr, %class.svector.4, i32, i8, i8, i8, i8 }>
%class.vector = type { ptr }
%class.svector = type { %class.vector.0 }
%class.vector.0 = type { ptr }
%class.vector.1 = type { ptr }
%class.svector.2 = type { %class.vector.3 }
%class.vector.3 = type { ptr }
%"struct.hilbert_basis::stats" = type { i32, i32, i32 }
%class.svector.4 = type { %class.vector.5 }
%class.vector.5 = type { ptr }
%"struct.hilbert_basis::offset_t" = type { i32 }
%class.checked_int64 = type { i64 }
%"class.hilbert_basis::values" = type { ptr }

@.str.5 = private unnamed_addr constant [2 x i8] c"\0A\00", align 1
@.str.13 = private unnamed_addr constant [5 x i8] c" -> \00", align 1
@.str.14 = private unnamed_addr constant [2 x i8] c" \00", align 1

; Function Attrs: mustprogress nounwind uwtable
define linkonce_odr hidden noundef nonnull align 8 dereferenceable(8) ptr @_ZNK6vectorIS_I13checked_int64ILb1EELb1EjELb1EjEixEj(ptr noundef nonnull align 8 dereferenceable(8) %this, i32 noundef %idx) #5 comdat align 2 {
entry:
  %this.addr = alloca ptr, align 8
  %idx.addr = alloca i32, align 4
  store ptr %this, ptr %this.addr, align 8
  store i32 %idx, ptr %idx.addr, align 4
  %this1 = load ptr, ptr %this.addr, align 8
  %m_data = getelementptr inbounds %class.vector, ptr %this1, i32 0, i32 0
  %0 = load ptr, ptr %m_data, align 8
  %1 = load i32, ptr %idx.addr, align 4
  %idxprom = zext i32 %1 to i64
  %arrayidx = getelementptr inbounds %class.vector.1, ptr %0, i64 %idxprom
  ret ptr %arrayidx
}

; Function Attrs: mustprogress nounwind uwtable
define linkonce_odr hidden noundef i32 @_ZNK6vectorI13checked_int64ILb1EELb1EjE4sizeEv(ptr noundef nonnull align 8 dereferenceable(8) %this) #5 comdat align 2 {
entry:
  %retval = alloca i32, align 4
  %this.addr = alloca ptr, align 8
  store ptr %this, ptr %this.addr, align 8
  %this1 = load ptr, ptr %this.addr, align 8
  %m_data = getelementptr inbounds %class.vector.1, ptr %this1, i32 0, i32 0
  %0 = load ptr, ptr %m_data, align 8
  %cmp = icmp eq ptr %0, null
  br i1 %cmp, label %if.then, label %if.end

if.then:                                          ; preds = %entry
  store i32 0, ptr %retval, align 4
  br label %return

if.end:                                           ; preds = %entry
  %m_data2 = getelementptr inbounds %class.vector.1, ptr %this1, i32 0, i32 0
  %1 = load ptr, ptr %m_data2, align 8
  %arrayidx = getelementptr inbounds i32, ptr %1, i64 -1
  %2 = load i32, ptr %arrayidx, align 4
  store i32 %2, ptr %retval, align 4
  br label %return

return:                                           ; preds = %if.end, %if.then
  %3 = load i32, ptr %retval, align 4
  ret i32 %3
}

; Function Attrs: mustprogress uwtable
define linkonce_odr hidden noundef nonnull align 8 dereferenceable(8) ptr @_ZNK6vectorIS_I13checked_int64ILb1EELb1EjELb1EjE4backEv(ptr noundef nonnull align 8 dereferenceable(8) %this) #4 comdat align 2 {
entry:
  %this.addr = alloca ptr, align 8
  store ptr %this, ptr %this.addr, align 8
  %this1 = load ptr, ptr %this.addr, align 8
  %call = call noundef i32 @_ZNK6vectorIS_I13checked_int64ILb1EELb1EjELb1EjE4sizeEv(ptr noundef nonnull align 8 dereferenceable(8) %this1)
  %sub = sub i32 %call, 1
  %call2 = call noundef nonnull align 8 dereferenceable(8) ptr @_ZNK6vectorIS_I13checked_int64ILb1EELb1EjELb1EjEixEj(ptr noundef nonnull align 8 dereferenceable(8) %this1, i32 noundef %sub)
  ret ptr %call2
}

; Function Attrs: mustprogress nounwind uwtable
define linkonce_odr hidden noundef zeroext i1 @_ZNK6vectorIS_I13checked_int64ILb1EELb1EjELb1EjE5emptyEv(ptr noundef nonnull align 8 dereferenceable(8) %this) #5 comdat align 2 {
entry:
  %this.addr = alloca ptr, align 8
  store ptr %this, ptr %this.addr, align 8
  %this1 = load ptr, ptr %this.addr, align 8
  %m_data = getelementptr inbounds %class.vector, ptr %this1, i32 0, i32 0
  %0 = load ptr, ptr %m_data, align 8
  %cmp = icmp eq ptr %0, null
  br i1 %cmp, label %lor.end, label %lor.rhs

lor.rhs:                                          ; preds = %entry
  %m_data2 = getelementptr inbounds %class.vector, ptr %this1, i32 0, i32 0
  %1 = load ptr, ptr %m_data2, align 8
  %arrayidx = getelementptr inbounds i32, ptr %1, i64 -1
  %2 = load i32, ptr %arrayidx, align 4
  %cmp3 = icmp eq i32 %2, 0
  br label %lor.end

lor.end:                                          ; preds = %lor.rhs, %entry
  %3 = phi i1 [ true, %entry ], [ %cmp3, %lor.rhs ]
  ret i1 %3
}

; Function Attrs: mustprogress nounwind uwtable
define linkonce_odr hidden noundef nonnull align 8 dereferenceable(8) ptr @_ZNK13hilbert_basis6valuesixEj(ptr noundef nonnull align 8 dereferenceable(8) %this, i32 noundef %i) #5 comdat align 2 {
entry:
  %this.addr = alloca ptr, align 8
  %i.addr = alloca i32, align 4
  store ptr %this, ptr %this.addr, align 8
  store i32 %i, ptr %i.addr, align 4
  %this1 = load ptr, ptr %this.addr, align 8
  %m_values = getelementptr inbounds %"class.hilbert_basis::values", ptr %this1, i32 0, i32 0
  %0 = load ptr, ptr %m_values, align 8
  %1 = load i32, ptr %i.addr, align 4
  %idxprom = zext i32 %1 to i64
  %arrayidx = getelementptr inbounds %class.checked_int64, ptr %0, i64 %idxprom
  ret ptr %arrayidx
}

; Function Attrs: mustprogress uwtable
define hidden noundef i32 @_ZNK13hilbert_basis12get_num_varsEv(ptr noundef nonnull align 8 dereferenceable(127) %this) #4 align 2 {
entry:
  %retval = alloca i32, align 4
  %this.addr = alloca ptr, align 8
  store ptr %this, ptr %this.addr, align 8
  %this1 = load ptr, ptr %this.addr, align 8
  %m_ineqs = getelementptr inbounds %class.hilbert_basis, ptr %this1, i32 0, i32 1
  %call = call noundef zeroext i1 @_ZNK6vectorIS_I13checked_int64ILb1EELb1EjELb1EjE5emptyEv(ptr noundef nonnull align 8 dereferenceable(8) %m_ineqs)
  br i1 %call, label %if.then, label %if.else

if.then:                                          ; preds = %entry
  store i32 0, ptr %retval, align 4
  br label %return

if.else:                                          ; preds = %entry
  %m_ineqs2 = getelementptr inbounds %class.hilbert_basis, ptr %this1, i32 0, i32 1
  %call3 = call noundef nonnull align 8 dereferenceable(8) ptr @_ZNK6vectorIS_I13checked_int64ILb1EELb1EjELb1EjE4backEv(ptr noundef nonnull align 8 dereferenceable(8) %m_ineqs2)
  %call4 = call noundef i32 @_ZNK6vectorI13checked_int64ILb1EELb1EjE4sizeEv(ptr noundef nonnull align 8 dereferenceable(8) %call3)
  store i32 %call4, ptr %retval, align 4
  br label %return

return:                                           ; preds = %if.else, %if.then
  %0 = load i32, ptr %retval, align 4
  ret i32 %0
}

; Function Attrs: mustprogress nounwind uwtable
define linkonce_odr hidden void @_ZN13hilbert_basis6valuesC2EjP13checked_int64ILb1EE(ptr noundef nonnull align 8 dereferenceable(8) %this, i32 noundef %offset, ptr noundef %v) unnamed_addr #5 comdat align 2 {
entry:
  %this.addr = alloca ptr, align 8
  %offset.addr = alloca i32, align 4
  %v.addr = alloca ptr, align 8
  store ptr %this, ptr %this.addr, align 8
  store i32 %offset, ptr %offset.addr, align 4
  store ptr %v, ptr %v.addr, align 8
  %this1 = load ptr, ptr %this.addr, align 8
  %m_values = getelementptr inbounds %"class.hilbert_basis::values", ptr %this1, i32 0, i32 0
  %0 = load ptr, ptr %v.addr, align 8
  %1 = load i32, ptr %offset.addr, align 4
  %idx.ext = zext i32 %1 to i64
  %add.ptr = getelementptr inbounds %class.checked_int64, ptr %0, i64 %idx.ext
  store ptr %add.ptr, ptr %m_values, align 8
  ret void
}

; Function Attrs: mustprogress nounwind uwtable
define linkonce_odr hidden noundef ptr @_ZNK6vectorI13checked_int64ILb1EELb1EjE4dataEv(ptr noundef nonnull align 8 dereferenceable(8) %this) #5 comdat align 2 {
entry:
  %this.addr = alloca ptr, align 8
  store ptr %this, ptr %this.addr, align 8
  %this1 = load ptr, ptr %this.addr, align 8
  %m_data = getelementptr inbounds %class.vector.1, ptr %this1, i32 0, i32 0
  %0 = load ptr, ptr %m_data, align 8
  ret ptr %0
}

; Function Attrs: mustprogress nounwind uwtable
define linkonce_odr hidden noundef i32 @_ZNK6vectorIS_I13checked_int64ILb1EELb1EjELb1EjE4sizeEv(ptr noundef nonnull align 8 dereferenceable(8) %this) #5 comdat align 2 {
entry:
  %retval = alloca i32, align 4
  %this.addr = alloca ptr, align 8
  store ptr %this, ptr %this.addr, align 8
  %this1 = load ptr, ptr %this.addr, align 8
  %m_data = getelementptr inbounds %class.vector, ptr %this1, i32 0, i32 0
  %0 = load ptr, ptr %m_data, align 8
  %cmp = icmp eq ptr %0, null
  br i1 %cmp, label %if.then, label %if.end

if.then:                                          ; preds = %entry
  store i32 0, ptr %retval, align 4
  br label %return

if.end:                                           ; preds = %entry
  %m_data2 = getelementptr inbounds %class.vector, ptr %this1, i32 0, i32 0
  %1 = load ptr, ptr %m_data2, align 8
  %arrayidx = getelementptr inbounds i32, ptr %1, i64 -1
  %2 = load i32, ptr %arrayidx, align 4
  store i32 %2, ptr %retval, align 4
  br label %return

return:                                           ; preds = %if.end, %if.then
  %3 = load i32, ptr %retval, align 4
  ret i32 %3
}

; Function Attrs: mustprogress uwtable
define linkonce_odr hidden noundef nonnull align 8 dereferenceable(8) ptr @_ZlsRSoRK13checked_int64ILb1EE(ptr noundef nonnull align 8 dereferenceable(8) %out, ptr noundef nonnull align 8 dereferenceable(8) %i) #4 comdat {
entry:
  %out.addr = alloca ptr, align 8
  %i.addr = alloca ptr, align 8
  store ptr %out, ptr %out.addr, align 8
  store ptr %i, ptr %i.addr, align 8
  %0 = load ptr, ptr %out.addr, align 8
  %1 = load ptr, ptr %i.addr, align 8
  %m_value = getelementptr inbounds %class.checked_int64, ptr %1, i32 0, i32 0
  %2 = load i64, ptr %m_value, align 8
  %call = call noundef nonnull align 8 dereferenceable(8) ptr @_ZNSolsEl(ptr noundef nonnull align 8 dereferenceable(8) %0, i64 noundef %2)
  ret ptr %call
}

; Function Attrs: mustprogress nounwind uwtable
define linkonce_odr hidden noundef nonnull align 8 dereferenceable(8) ptr @_ZN13hilbert_basis6values6weightEv(ptr noundef nonnull align 8 dereferenceable(8) %this) #5 comdat align 2 {
entry:
  %this.addr = alloca ptr, align 8
  store ptr %this, ptr %this.addr, align 8
  %this1 = load ptr, ptr %this.addr, align 8
  %m_values = getelementptr inbounds %"class.hilbert_basis::values", ptr %this1, i32 0, i32 0
  %0 = load ptr, ptr %m_values, align 8
  %arrayidx = getelementptr inbounds %class.checked_int64, ptr %0, i64 -1
  ret ptr %arrayidx
}

; Function Attrs: mustprogress uwtable
define hidden void @_ZNK13hilbert_basis7displayERSoRKNS_6valuesE(ptr noundef nonnull align 8 dereferenceable(127) %this, ptr noundef nonnull align 8 dereferenceable(8) %out, ptr noundef nonnull align 8 dereferenceable(8) %v) #4 align 2 {
entry:
  %this.addr = alloca ptr, align 8
  %out.addr = alloca ptr, align 8
  %v.addr = alloca ptr, align 8
  %nv = alloca i32, align 4
  %j = alloca i32, align 4
  store ptr %this, ptr %this.addr, align 8
  store ptr %out, ptr %out.addr, align 8
  store ptr %v, ptr %v.addr, align 8
  %this1 = load ptr, ptr %this.addr, align 8
  %call = call noundef i32 @_ZNK13hilbert_basis12get_num_varsEv(ptr noundef nonnull align 8 dereferenceable(127) %this1)
  store i32 %call, ptr %nv, align 4
  store i32 0, ptr %j, align 4
  br label %for.cond

for.cond:                                         ; preds = %for.inc, %entry
  %0 = load i32, ptr %j, align 4
  %1 = load i32, ptr %nv, align 4
  %cmp = icmp ult i32 %0, %1
  br i1 %cmp, label %for.body, label %for.end

for.body:                                         ; preds = %for.cond
  %2 = load ptr, ptr %out.addr, align 8
  %3 = load ptr, ptr %v.addr, align 8
  %4 = load i32, ptr %j, align 4
  %call2 = call noundef nonnull align 8 dereferenceable(8) ptr @_ZNK13hilbert_basis6valuesixEj(ptr noundef nonnull align 8 dereferenceable(8) %3, i32 noundef %4)
  %call3 = call noundef nonnull align 8 dereferenceable(8) ptr @_ZlsRSoRK13checked_int64ILb1EE(ptr noundef nonnull align 8 dereferenceable(8) %2, ptr noundef nonnull align 8 dereferenceable(8) %call2)
  %call4 = call noundef nonnull align 8 dereferenceable(8) ptr @_ZStlsISt11char_traitsIcEERSt13basic_ostreamIcT_ES5_PKc(ptr noundef nonnull align 8 dereferenceable(8) %call3, ptr noundef @.str.14)
  br label %for.inc

for.inc:                                          ; preds = %for.body
  %5 = load i32, ptr %j, align 4
  %inc = add i32 %5, 1
  store i32 %inc, ptr %j, align 4
  br label %for.cond, !llvm.loop !53

for.end:                                          ; preds = %for.cond
  ret void
}

; Function Attrs: mustprogress uwtable
define hidden ptr @_ZNK13hilbert_basis3vecENS_8offset_tE(ptr noundef nonnull align 8 dereferenceable(127) %this, i32 %offs.coerce) #4 align 2 {
entry:
  %retval = alloca %"class.hilbert_basis::values", align 8
  %offs = alloca %"struct.hilbert_basis::offset_t", align 4
  %this.addr = alloca ptr, align 8
  %coerce.dive = getelementptr inbounds %"struct.hilbert_basis::offset_t", ptr %offs, i32 0, i32 0
  store i32 %offs.coerce, ptr %coerce.dive, align 4
  store ptr %this, ptr %this.addr, align 8
  %this1 = load ptr, ptr %this.addr, align 8
  %m_ineqs = getelementptr inbounds %class.hilbert_basis, ptr %this1, i32 0, i32 1
  %call = call noundef i32 @_ZNK6vectorIS_I13checked_int64ILb1EELb1EjELb1EjE4sizeEv(ptr noundef nonnull align 8 dereferenceable(8) %m_ineqs)
  %m_store = getelementptr inbounds %class.hilbert_basis, ptr %this1, i32 0, i32 3
  %call2 = call noundef ptr @_ZNK6vectorI13checked_int64ILb1EELb1EjE4dataEv(ptr noundef nonnull align 8 dereferenceable(8) %m_store)
  %m_offset = getelementptr inbounds %"struct.hilbert_basis::offset_t", ptr %offs, i32 0, i32 0
  %0 = load i32, ptr %m_offset, align 4
  %idx.ext = zext i32 %0 to i64
  %add.ptr = getelementptr inbounds %class.checked_int64, ptr %call2, i64 %idx.ext
  call void @_ZN13hilbert_basis6valuesC2EjP13checked_int64ILb1EE(ptr noundef nonnull align 8 dereferenceable(8) %retval, i32 noundef %call, ptr noundef %add.ptr)
  %coerce.dive3 = getelementptr inbounds %"class.hilbert_basis::values", ptr %retval, i32 0, i32 0
  %1 = load ptr, ptr %coerce.dive3, align 8
  ret ptr %1
}

; Function Attrs: mustprogress uwtable
define hidden void @_ZNK13hilbert_basis7displayERSoNS_8offset_tE(ptr noundef nonnull align 8 dereferenceable(127) %this, ptr noundef nonnull align 8 dereferenceable(8) %out, i32 %o.coerce) #4 align 2 {
entry:
  %o = alloca %"struct.hilbert_basis::offset_t", align 4
  %this.addr = alloca ptr, align 8
  %out.addr = alloca ptr, align 8
  %ref.tmp = alloca %"class.hilbert_basis::values", align 8
  %agg.tmp = alloca %"struct.hilbert_basis::offset_t", align 4
  %ref.tmp5 = alloca %"class.hilbert_basis::values", align 8
  %agg.tmp6 = alloca %"struct.hilbert_basis::offset_t", align 4
  %coerce.dive = getelementptr inbounds %"struct.hilbert_basis::offset_t", ptr %o, i32 0, i32 0
  store i32 %o.coerce, ptr %coerce.dive, align 4
  store ptr %this, ptr %this.addr, align 8
  store ptr %out, ptr %out.addr, align 8
  %this1 = load ptr, ptr %this.addr, align 8
  %0 = load ptr, ptr %out.addr, align 8
  call void @llvm.memcpy.p0.p0.i64(ptr align 4 %agg.tmp, ptr align 4 %o, i64 4, i1 false)
  %coerce.dive2 = getelementptr inbounds %"struct.hilbert_basis::offset_t", ptr %agg.tmp, i32 0, i32 0
  %1 = load i32, ptr %coerce.dive2, align 4
  %call = call ptr @_ZNK13hilbert_basis3vecENS_8offset_tE(ptr noundef nonnull align 8 dereferenceable(127) %this1, i32 %1)
  %coerce.dive3 = getelementptr inbounds %"class.hilbert_basis::values", ptr %ref.tmp, i32 0, i32 0
  store ptr %call, ptr %coerce.dive3, align 8
  call void @_ZNK13hilbert_basis7displayERSoRKNS_6valuesE(ptr noundef nonnull align 8 dereferenceable(127) %this1, ptr noundef nonnull align 8 dereferenceable(8) %0, ptr noundef nonnull align 8 dereferenceable(8) %ref.tmp)
  %2 = load ptr, ptr %out.addr, align 8
  %call4 = call noundef nonnull align 8 dereferenceable(8) ptr @_ZStlsISt11char_traitsIcEERSt13basic_ostreamIcT_ES5_PKc(ptr noundef nonnull align 8 dereferenceable(8) %2, ptr noundef @.str.13)
  call void @llvm.memcpy.p0.p0.i64(ptr align 4 %agg.tmp6, ptr align 4 %o, i64 4, i1 false)
  %coerce.dive7 = getelementptr inbounds %"struct.hilbert_basis::offset_t", ptr %agg.tmp6, i32 0, i32 0
  %3 = load i32, ptr %coerce.dive7, align 4
  %call8 = call ptr @_ZNK13hilbert_basis3vecENS_8offset_tE(ptr noundef nonnull align 8 dereferenceable(127) %this1, i32 %3)
  %coerce.dive9 = getelementptr inbounds %"class.hilbert_basis::values", ptr %ref.tmp5, i32 0, i32 0
  store ptr %call8, ptr %coerce.dive9, align 8
  %call10 = call noundef nonnull align 8 dereferenceable(8) ptr @_ZN13hilbert_basis6values6weightEv(ptr noundef nonnull align 8 dereferenceable(8) %ref.tmp5)
  %call11 = call noundef nonnull align 8 dereferenceable(8) ptr @_ZlsRSoRK13checked_int64ILb1EE(ptr noundef nonnull align 8 dereferenceable(8) %call4, ptr noundef nonnull align 8 dereferenceable(8) %call10)
  %call12 = call noundef nonnull align 8 dereferenceable(8) ptr @_ZStlsISt11char_traitsIcEERSt13basic_ostreamIcT_ES5_PKc(ptr noundef nonnull align 8 dereferenceable(8) %call11, ptr noundef @.str.5)
  ret void
}