; Function Attrs: mustprogress uwtable
define hidden void @_ZNK13hilbert_basis7displayERSoNS_8offset_tE(ptr nocapture noundef nonnull readonly align 8 dereferenceable(127) %this, ptr noundef nonnull align 8 dereferenceable(8) %out, i32 %o.coerce) local_unnamed_addr #3 align 2 {
entry:
  %m_ineqs.i = getelementptr inbounds i8, ptr %this, i64 8
  %0 = load ptr, ptr %m_ineqs.i, align 8
  %cmp.i.i = icmp eq ptr %0, null
  br i1 %cmp.i.i, label %_ZNK13hilbert_basis3vecENS_8offset_tE.exit.thread, label %_ZNK6vectorIS_I13checked_int64ILb1EELb1EjELb1EjE5emptyEv.exit.i.i

_ZNK13hilbert_basis3vecENS_8offset_tE.exit.thread: ; preds = %entry
  %m_store.i15 = getelementptr inbounds i8, ptr %this, i64 24
  %idx.ext.i16 = zext i32 %o.coerce to i64
  br label %_ZNK13hilbert_basis7displayERSoRKNS_6valuesE.exit

_ZNK6vectorIS_I13checked_int64ILb1EELb1EjELb1EjE5emptyEv.exit.i.i: ; preds = %entry
  %arrayidx.i.i = getelementptr inbounds i8, ptr %0, i64 -4
  %1 = load i32, ptr %arrayidx.i.i, align 4
  %2 = zext i32 %1 to i64
  %m_store.i = getelementptr inbounds i8, ptr %this, i64 24
  %3 = load ptr, ptr %m_store.i, align 8
  %idx.ext.i = zext i32 %o.coerce to i64
  %add.ptr.i = getelementptr inbounds %class.checked_int64, ptr %3, i64 %idx.ext.i
  %add.ptr.i.i = getelementptr inbounds %class.checked_int64, ptr %add.ptr.i, i64 %2
  %cmp3.i.i.i = icmp eq i32 %1, 0
  br i1 %cmp3.i.i.i, label %_ZNK13hilbert_basis7displayERSoRKNS_6valuesE.exit, label %_ZNK6vectorIS_I13checked_int64ILb1EELb1EjELb1EjE4backEv.exit.i.i

_ZNK6vectorIS_I13checked_int64ILb1EELb1EjELb1EjE4backEv.exit.i.i: ; preds = %_ZNK6vectorIS_I13checked_int64ILb1EELb1EjELb1EjE5emptyEv.exit.i.i
  %4 = add i32 %1, -1
  %5 = zext i32 %4 to i64
  %arrayidx.i1.i.i.i = getelementptr inbounds %class.vector.1, ptr %0, i64 %5
  %6 = load ptr, ptr %arrayidx.i1.i.i.i, align 8
  %cmp.i1.i.i = icmp eq ptr %6, null
  br i1 %cmp.i1.i.i, label %_ZNK13hilbert_basis7displayERSoRKNS_6valuesE.exit, label %_ZNK13hilbert_basis12get_num_varsEv.exit.i

_ZNK13hilbert_basis12get_num_varsEv.exit.i:       ; preds = %_ZNK6vectorIS_I13checked_int64ILb1EELb1EjELb1EjE4backEv.exit.i.i
  %arrayidx.i2.i.i = getelementptr inbounds i8, ptr %6, i64 -4
  %7 = load i32, ptr %arrayidx.i2.i.i, align 4
  %cmp3.not.i = icmp eq i32 %7, 0
  br i1 %cmp3.not.i, label %_ZNK13hilbert_basis7displayERSoRKNS_6valuesE.exit, label %for.body.preheader.i

for.body.preheader.i:                             ; preds = %_ZNK13hilbert_basis12get_num_varsEv.exit.i
  %wide.trip.count.i = zext i32 %7 to i64
  br label %for.body.i

for.body.i:                                       ; preds = %for.body.i, %for.body.preheader.i
  %indvars.iv.i = phi i64 [ 0, %for.body.preheader.i ], [ %indvars.iv.next.i, %for.body.i ]
  %arrayidx.i.i3 = getelementptr inbounds %class.checked_int64, ptr %add.ptr.i.i, i64 %indvars.iv.i
  %8 = load i64, ptr %arrayidx.i.i3, align 8
  %call.i.i = tail call noundef nonnull align 8 dereferenceable(8) ptr @_ZNSolsEl(ptr noundef nonnull align 8 dereferenceable(8) %out, i64 noundef %8)
  %call4.i = tail call noundef nonnull align 8 dereferenceable(8) ptr @_ZStlsISt11char_traitsIcEERSt13basic_ostreamIcT_ES5_PKc(ptr noundef nonnull align 8 dereferenceable(8) %call.i.i, ptr noundef nonnull @.str.14)
  %indvars.iv.next.i = add nuw nsw i64 %indvars.iv.i, 1
  %exitcond.not.i = icmp eq i64 %indvars.iv.next.i, %wide.trip.count.i
  br i1 %exitcond.not.i, label %_ZNK13hilbert_basis7displayERSoRKNS_6valuesE.exit, label %for.body.i, !llvm.loop !74

_ZNK13hilbert_basis7displayERSoRKNS_6valuesE.exit: ; preds = %for.body.i, %_ZNK13hilbert_basis3vecENS_8offset_tE.exit.thread, %_ZNK6vectorIS_I13checked_int64ILb1EELb1EjELb1EjE5emptyEv.exit.i.i, %_ZNK6vectorIS_I13checked_int64ILb1EELb1EjELb1EjE4backEv.exit.i.i, %_ZNK13hilbert_basis12get_num_varsEv.exit.i
  %idx.ext.i20 = phi i64 [ %idx.ext.i16, %_ZNK13hilbert_basis3vecENS_8offset_tE.exit.thread ], [ %idx.ext.i, %_ZNK6vectorIS_I13checked_int64ILb1EELb1EjELb1EjE5emptyEv.exit.i.i ], [ %idx.ext.i, %_ZNK6vectorIS_I13checked_int64ILb1EELb1EjELb1EjE4backEv.exit.i.i ], [ %idx.ext.i, %_ZNK13hilbert_basis12get_num_varsEv.exit.i ], [ %idx.ext.i, %for.body.i ]
  %m_store.i19 = phi ptr [ %m_store.i15, %_ZNK13hilbert_basis3vecENS_8offset_tE.exit.thread ], [ %m_store.i, %_ZNK6vectorIS_I13checked_int64ILb1EELb1EjELb1EjE5emptyEv.exit.i.i ], [ %m_store.i, %_ZNK6vectorIS_I13checked_int64ILb1EELb1EjELb1EjE4backEv.exit.i.i ], [ %m_store.i, %_ZNK13hilbert_basis12get_num_varsEv.exit.i ], [ %m_store.i, %for.body.i ]
  %call4 = tail call noundef nonnull align 8 dereferenceable(8) ptr @_ZStlsISt11char_traitsIcEERSt13basic_ostreamIcT_ES5_PKc(ptr noundef nonnull align 8 dereferenceable(8) %out, ptr noundef nonnull @.str.13)
  %9 = load ptr, ptr %m_ineqs.i, align 8
  %cmp.i.i5 = icmp eq ptr %9, null
  br i1 %cmp.i.i5, label %_ZNK13hilbert_basis3vecENS_8offset_tE.exit13, label %if.end.i.i6

if.end.i.i6:                                      ; preds = %_ZNK13hilbert_basis7displayERSoRKNS_6valuesE.exit
  %arrayidx.i.i7 = getelementptr inbounds i8, ptr %9, i64 -4
  %10 = load i32, ptr %arrayidx.i.i7, align 4
  %11 = zext i32 %10 to i64
  br label %_ZNK13hilbert_basis3vecENS_8offset_tE.exit13

_ZNK13hilbert_basis3vecENS_8offset_tE.exit13:     ; preds = %_ZNK13hilbert_basis7displayERSoRKNS_6valuesE.exit, %if.end.i.i6
  %retval.0.i.i8 = phi i64 [ %11, %if.end.i.i6 ], [ 0, %_ZNK13hilbert_basis7displayERSoRKNS_6valuesE.exit ]
  %12 = load ptr, ptr %m_store.i19, align 8
  %add.ptr.i11 = getelementptr inbounds %class.checked_int64, ptr %12, i64 %idx.ext.i20
  %add.ptr.i.i12 = getelementptr inbounds %class.checked_int64, ptr %add.ptr.i11, i64 %retval.0.i.i8
  %arrayidx.i = getelementptr inbounds i8, ptr %add.ptr.i.i12, i64 -8
  %13 = load i64, ptr %arrayidx.i, align 8
  %call.i = tail call noundef nonnull align 8 dereferenceable(8) ptr @_ZNSolsEl(ptr noundef nonnull align 8 dereferenceable(8) %call4, i64 noundef %13)
  %call12 = tail call noundef nonnull align 8 dereferenceable(8) ptr @_ZStlsISt11char_traitsIcEERSt13basic_ostreamIcT_ES5_PKc(ptr noundef nonnull align 8 dereferenceable(8) %call.i, ptr noundef nonnull @.str.5)
  ret void
}